target datalayout = "e-m:e-p270:32:32-p271:32:32-p272:64:64-i64:64-i128:128-f80:128-n8:16:32:64-S128"
target triple = "x86_64-unknown-linux-gnu"

%struct.sockaddr_in = type { i16, i16, %struct.in_addr, [8 x i8] }
%struct.in_addr = type { i32 }
%struct.NetSocketState = type { %struct.NetClientState, i32, i32, %struct.SocketReadState, i32, %struct.sockaddr_in, ptr, i8, i8 }
%struct.NetClientState = type { ptr, i32, %union.anon.1, ptr, ptr, ptr, ptr, [256 x i8], i8, ptr, i32, i8, i32, i32, i8, i8, i8, %union.anon.2 }
%union.anon.1 = type { %struct.QTailQLink }
%struct.QTailQLink = type { ptr, ptr }
%union.anon.2 = type { %struct.QTailQLink }
%struct.SocketReadState = type { i32, i8, i32, i32, i32, [69632 x i8], ptr }

@.str.23 = private unnamed_addr constant [30 x i8] c"socket: connection from %s:%d\00", align 1

; Function Attrs: nounwind sspstrong uwtable
define internal void @net_socket_update_fd_handler(ptr noundef %s) #0 {
entry:
  %s.addr = alloca ptr, align 8
  store ptr %s, ptr %s.addr, align 8
  %0 = load ptr, ptr %s.addr, align 8
  %fd = getelementptr inbounds %struct.NetSocketState, ptr %0, i32 0, i32 2
  %1 = load i32, ptr %fd, align 4
  %2 = load ptr, ptr %s.addr, align 8
  %read_poll = getelementptr inbounds %struct.NetSocketState, ptr %2, i32 0, i32 7
  %3 = load i8, ptr %read_poll, align 8
  %tobool = trunc i8 %3 to i1
  br i1 %tobool, label %cond.true, label %cond.false

cond.true:                                        ; preds = %entry
  %4 = load ptr, ptr %s.addr, align 8
  %send_fn = getelementptr inbounds %struct.NetSocketState, ptr %4, i32 0, i32 6
  %5 = load ptr, ptr %send_fn, align 8
  br label %cond.end

cond.false:                                       ; preds = %entry
  br label %cond.end

cond.end:                                         ; preds = %cond.false, %cond.true
  %cond = phi ptr [ %5, %cond.true ], [ null, %cond.false ]
  %6 = load ptr, ptr %s.addr, align 8
  %write_poll = getelementptr inbounds %struct.NetSocketState, ptr %6, i32 0, i32 8
  %7 = load i8, ptr %write_poll, align 1
  %tobool1 = trunc i8 %7 to i1
  %cond2 = select i1 %tobool1, ptr @net_socket_writable, ptr null
  %8 = load ptr, ptr %s.addr, align 8
  call void @qemu_set_fd_handler(i32 noundef %1, ptr noundef %cond, ptr noundef %cond2, ptr noundef %8)
  ret void
}

; Function Attrs: nounwind sspstrong uwtable
define internal void @net_socket_read_poll(ptr noundef %s, i1 noundef zeroext %enable) #0 {
entry:
  %s.addr = alloca ptr, align 8
  %enable.addr = alloca i8, align 1
  store ptr %s, ptr %s.addr, align 8
  %frombool = zext i1 %enable to i8
  store i8 %frombool, ptr %enable.addr, align 1
  %0 = load i8, ptr %enable.addr, align 1
  %tobool = trunc i8 %0 to i1
  %1 = load ptr, ptr %s.addr, align 8
  %read_poll = getelementptr inbounds %struct.NetSocketState, ptr %1, i32 0, i32 7
  %frombool1 = zext i1 %tobool to i8
  store i8 %frombool1, ptr %read_poll, align 8
  %2 = load ptr, ptr %s.addr, align 8
  call void @net_socket_update_fd_handler(ptr noundef %2)
  ret void
}

; Function Attrs: nounwind sspstrong uwtable
define internal void @net_socket_connect(ptr noundef %opaque) #0 {
entry:
  %opaque.addr = alloca ptr, align 8
  %s = alloca ptr, align 8
  store ptr %opaque, ptr %opaque.addr, align 8
  %0 = load ptr, ptr %opaque.addr, align 8
  store ptr %0, ptr %s, align 8
  %1 = load ptr, ptr %s, align 8
  %send_fn = getelementptr inbounds %struct.NetSocketState, ptr %1, i32 0, i32 6
  store ptr @net_socket_send, ptr %send_fn, align 8
  %2 = load ptr, ptr %s, align 8
  call void @net_socket_read_poll(ptr noundef %2, i1 noundef zeroext true)
  ret void
}

; Function Attrs: nounwind sspstrong uwtable
define internal void @net_socket_accept(ptr noundef %opaque) #0 {
entry:
  %opaque.addr = alloca ptr, align 8
  %s = alloca ptr, align 8
  %saddr = alloca %struct.sockaddr_in, align 4
  %len = alloca i32, align 4
  %fd = alloca i32, align 4
  store ptr %opaque, ptr %opaque.addr, align 8
  %0 = load ptr, ptr %opaque.addr, align 8
  store ptr %0, ptr %s, align 8
  br label %for.cond

for.cond:                                         ; preds = %if.end6, %entry
  store i32 16, ptr %len, align 4
  %1 = load ptr, ptr %s, align 8
  %listen_fd = getelementptr inbounds %struct.NetSocketState, ptr %1, i32 0, i32 1
  %2 = load i32, ptr %listen_fd, align 8
  %call = call i32 @qemu_accept(i32 noundef %2, ptr noundef %saddr, ptr noundef %len)
  store i32 %call, ptr %fd, align 4
  %3 = load i32, ptr %fd, align 4
  %cmp = icmp slt i32 %3, 0
  br i1 %cmp, label %land.lhs.true, label %if.else

land.lhs.true:                                    ; preds = %for.cond
  %call1 = call ptr @__errno_location() #8
  %4 = load i32, ptr %call1, align 4
  %cmp2 = icmp ne i32 %4, 4
  br i1 %cmp2, label %if.then, label %if.else

if.then:                                          ; preds = %land.lhs.true
  br label %return

if.else:                                          ; preds = %land.lhs.true, %for.cond
  %5 = load i32, ptr %fd, align 4
  %cmp3 = icmp sge i32 %5, 0
  br i1 %cmp3, label %if.then4, label %if.end

if.then4:                                         ; preds = %if.else
  %6 = load ptr, ptr %s, align 8
  %listen_fd5 = getelementptr inbounds %struct.NetSocketState, ptr %6, i32 0, i32 1
  %7 = load i32, ptr %listen_fd5, align 8
  call void @qemu_set_fd_handler(i32 noundef %7, ptr noundef null, ptr noundef null, ptr noundef null)
  br label %for.end

if.end:                                           ; preds = %if.else
  br label %if.end6

if.end6:                                          ; preds = %if.end
  br label %for.cond

for.end:                                          ; preds = %if.then4
  %8 = load i32, ptr %fd, align 4
  %9 = load ptr, ptr %s, align 8
  %fd7 = getelementptr inbounds %struct.NetSocketState, ptr %9, i32 0, i32 2
  store i32 %8, ptr %fd7, align 4
  %10 = load ptr, ptr %s, align 8
  %nc = getelementptr inbounds %struct.NetSocketState, ptr %10, i32 0, i32 0
  %link_down = getelementptr inbounds %struct.NetClientState, ptr %nc, i32 0, i32 1
  store i32 0, ptr %link_down, align 8
  %11 = load ptr, ptr %s, align 8
  call void @net_socket_connect(ptr noundef %11)
  %12 = load ptr, ptr %s, align 8
  %nc8 = getelementptr inbounds %struct.NetSocketState, ptr %12, i32 0, i32 0
  %sin_addr = getelementptr inbounds %struct.sockaddr_in, ptr %saddr, i32 0, i32 2
  %coerce.dive = getelementptr inbounds %struct.in_addr, ptr %sin_addr, i32 0, i32 0
  %13 = load i32, ptr %coerce.dive, align 4
  %call9 = call ptr @inet_ntoa(i32 %13) #7
  %sin_port = getelementptr inbounds %struct.sockaddr_in, ptr %saddr, i32 0, i32 1
  %14 = load i16, ptr %sin_port, align 2
  %call10 = call zeroext i16 @ntohs(i16 noundef zeroext %14) #8
  %conv = zext i16 %call10 to i32
  call void (ptr, ptr, ...) @qemu_set_info_str(ptr noundef %nc8, ptr noundef @.str.23, ptr noundef %call9, i32 noundef %conv)
  br label %return

return:                                           ; preds = %for.end, %if.then
  ret void
}