; Function Attrs: nounwind sspstrong uwtable
define internal void @net_socket_accept(ptr noundef %opaque) #0 {
entry:
  %saddr = alloca %struct.sockaddr_in, align 4
  %len = alloca i32, align 4
  %listen_fd = getelementptr inbounds nuw i8, ptr %opaque, i64 376
  br label %for.cond

for.cond:                                         ; preds = %land.lhs.true, %entry
  store i32 16, ptr %len, align 4
  %0 = load i32, ptr %listen_fd, align 8
  %call = call i32 @qemu_accept(i32 noundef %0, ptr noundef nonnull %saddr, ptr noundef nonnull %len) #8
  %cmp = icmp slt i32 %call, 0
  br i1 %cmp, label %land.lhs.true, label %if.then4

land.lhs.true:                                    ; preds = %for.cond
  %call1 = tail call ptr @__errno_location() #9
  %1 = load i32, ptr %call1, align 4
  %cmp2.not = icmp eq i32 %1, 4
  br i1 %cmp2.not, label %for.cond, label %return

if.then4:                                         ; preds = %for.cond
  %2 = load i32, ptr %listen_fd, align 8
  call void @qemu_set_fd_handler(i32 noundef %2, ptr noundef null, ptr noundef null, ptr noundef null) #8
  %fd7 = getelementptr inbounds nuw i8, ptr %opaque, i64 380
  store i32 %call, ptr %fd7, align 4
  %link_down = getelementptr inbounds nuw i8, ptr %opaque, i64 8
  store i32 0, ptr %link_down, align 8
  %send_fn.i = getelementptr inbounds nuw i8, ptr %opaque, i64 70072
  store ptr @net_socket_send, ptr %send_fn.i, align 8
  %read_poll.i.i = getelementptr inbounds nuw i8, ptr %opaque, i64 70080
  store i8 1, ptr %read_poll.i.i, align 8
  %write_poll.i.i.i = getelementptr inbounds nuw i8, ptr %opaque, i64 70081
  %3 = load i8, ptr %write_poll.i.i.i, align 1
  %tobool1.i.i.i = trunc i8 %3 to i1
  %cond2.i.i.i = select i1 %tobool1.i.i.i, ptr @net_socket_writable, ptr null
  call void @qemu_set_fd_handler(i32 noundef %call, ptr noundef nonnull @net_socket_send, ptr noundef %cond2.i.i.i, ptr noundef nonnull %opaque) #8
  %sin_addr = getelementptr inbounds nuw i8, ptr %saddr, i64 4
  %4 = load i32, ptr %sin_addr, align 4
  %call9 = call ptr @inet_ntoa(i32 %4) #8
  %sin_port = getelementptr inbounds nuw i8, ptr %saddr, i64 2
  %5 = load i16, ptr %sin_port, align 2
  %call10 = call zeroext i16 @ntohs(i16 noundef zeroext %5) #9
  %conv = zext i16 %call10 to i32
  call void (ptr, ptr, ...) @qemu_set_info_str(ptr noundef nonnull %opaque, ptr noundef nonnull @.str.23, ptr noundef %call9, i32 noundef %conv) #8
  br label %return

return:                                           ; preds = %land.lhs.true, %if.then4
  ret void
}